; Function Attrs: inlinehint mustprogress nounwind uwtable
define internal void @"_ZZ23grpc_slice_malloc_largeEN3$_08__invokeEP19grpc_slice_refcount"(ptr noundef %0) #21 align 2 {
  %2 = icmp eq ptr %0, null
  br i1 %2, label %"_ZZ23grpc_slice_malloc_largeENK3$_0clEP19grpc_slice_refcount.exit", label %3

3:                                                ; preds = %1
  tail call void @_ZdaPv(ptr noundef nonnull %0) #33
  br label %"_ZZ23grpc_slice_malloc_largeENK3$_0clEP19grpc_slice_refcount.exit"

"_ZZ23grpc_slice_malloc_largeENK3$_0clEP19grpc_slice_refcount.exit": ; preds = %1, %3
  ret void
}